target datalayout = "e-m:e-p270:32:32-p271:32:32-p272:64:64-i64:64-f80:128-n8:16:32:64-S128"
target triple = "x86_64-pc-linux-gnu"

@.str = private unnamed_addr constant [3 x i8] c"%d\00", align 1
@.str.1 = private unnamed_addr constant [4 x i8] c",%d\00", align 1

; Function Attrs: noinline nounwind uwtable
define dso_local i32 @main() #0 {
  %1 = alloca i32, align 4
  %2 = alloca [100 x i32], align 16
  %3 = alloca i32, align 4
  %4 = alloca i32, align 4
  %5 = alloca i32, align 4
  %6 = alloca i32, align 4
  %7 = alloca [100 x i32], align 16
  %8 = alloca i32, align 4
  %9 = alloca i32, align 4
  %10 = alloca i32, align 4
  store i32 0, i32* %1, align 4
  %11 = bitcast [100 x i32]* %2 to i8*
  call void @llvm.memset.p0i8.i64(i8* align 16 %11, i8 0, i64 400, i1 false)
  %12 = bitcast [100 x i32]* %7 to i8*
  call void @llvm.memset.p0i8.i64(i8* align 16 %12, i8 0, i64 400, i1 false)
  store i32 0, i32* %8, align 4
  store i32 0, i32* %9, align 4
  %13 = call i32 (i8*, ...) @__isoc99_scanf(i8* getelementptr inbounds ([3 x i8], [3 x i8]* @.str, i64 0, i64 0), i32* %4)
  store i32 0, i32* %5, align 4
  br label %14

14:                                               ; preds = %29, %0
  %15 = load i32, i32* %5, align 4
  %16 = load i32, i32* %4, align 4
  %17 = icmp slt i32 %15, %16
  br i1 %17, label %18, label %32

18:                                               ; preds = %14
  %19 = load i32, i32* %5, align 4
  %20 = sext i32 %19 to i64
  %21 = getelementptr inbounds [100 x i32], [100 x i32]* %7, i64 0, i64 %20
  %22 = call i32 (i8*, ...) @__isoc99_scanf(i8* getelementptr inbounds ([3 x i8], [3 x i8]* @.str, i64 0, i64 0), i32* %21)
  %23 = load i32, i32* %8, align 4
  %24 = load i32, i32* %5, align 4
  %25 = sext i32 %24 to i64
  %26 = getelementptr inbounds [100 x i32], [100 x i32]* %7, i64 0, i64 %25
  %27 = load i32, i32* %26, align 4
  %28 = add nsw i32 %23, %27
  store i32 %28, i32* %8, align 4
  br label %29

29:                                               ; preds = %18
  %30 = load i32, i32* %5, align 4
  %31 = add nsw i32 %30, 1
  store i32 %31, i32* %5, align 4
  br label %14

32:                                               ; preds = %14
  store i32 0, i32* %5, align 4
  br label %33

33:                                               ; preds = %79, %32
  %34 = load i32, i32* %5, align 4
  %35 = load i32, i32* %4, align 4
  %36 = icmp slt i32 %34, %35
  br i1 %36, label %37, label %82

37:                                               ; preds = %33
  store i32 0, i32* %6, align 4
  br label %38

38:                                               ; preds = %75, %37
  %39 = load i32, i32* %6, align 4
  %40 = load i32, i32* %4, align 4
  %41 = sub nsw i32 %40, 1
  %42 = load i32, i32* %5, align 4
  %43 = sub nsw i32 %41, %42
  %44 = icmp slt i32 %39, %43
  br i1 %44, label %45, label %78

45:                                               ; preds = %38
  %46 = load i32, i32* %6, align 4
  %47 = sext i32 %46 to i64
  %48 = getelementptr inbounds [100 x i32], [100 x i32]* %7, i64 0, i64 %47
  %49 = load i32, i32* %48, align 4
  %50 = load i32, i32* %6, align 4
  %51 = add nsw i32 %50, 1
  %52 = sext i32 %51 to i64
  %53 = getelementptr inbounds [100 x i32], [100 x i32]* %7, i64 0, i64 %52
  %54 = load i32, i32* %53, align 4
  %55 = icmp sgt i32 %49, %54
  br i1 %55, label %56, label %74

56:                                               ; preds = %45
  %57 = load i32, i32* %6, align 4
  %58 = sext i32 %57 to i64
  %59 = getelementptr inbounds [100 x i32], [100 x i32]* %7, i64 0, i64 %58
  %60 = load i32, i32* %59, align 4
  store i32 %60, i32* %10, align 4
  %61 = load i32, i32* %6, align 4
  %62 = add nsw i32 %61, 1
  %63 = sext i32 %62 to i64
  %64 = getelementptr inbounds [100 x i32], [100 x i32]* %7, i64 0, i64 %63
  %65 = load i32, i32* %64, align 4
  %66 = load i32, i32* %6, align 4
  %67 = sext i32 %66 to i64
  %68 = getelementptr inbounds [100 x i32], [100 x i32]* %7, i64 0, i64 %67
  store i32 %65, i32* %68, align 4
  %69 = load i32, i32* %10, align 4
  %70 = load i32, i32* %6, align 4
  %71 = add nsw i32 %70, 1
  %72 = sext i32 %71 to i64
  %73 = getelementptr inbounds [100 x i32], [100 x i32]* %7, i64 0, i64 %72
  store i32 %69, i32* %73, align 4
  br label %74

74:                                               ; preds = %56, %45
  br label %75

75:                                               ; preds = %74
  %76 = load i32, i32* %6, align 4
  %77 = add nsw i32 %76, 1
  store i32 %77, i32* %6, align 4
  br label %38

78:                                               ; preds = %38
  br label %79

79:                                               ; preds = %78
  %80 = load i32, i32* %5, align 4
  %81 = add nsw i32 %80, 1
  store i32 %81, i32* %5, align 4
  br label %33

82:                                               ; preds = %33
  store i32 0, i32* %5, align 4
  br label %83

83:                                               ; preds = %102, %82
  %84 = load i32, i32* %5, align 4
  %85 = load i32, i32* %4, align 4
  %86 = icmp slt i32 %84, %85
  br i1 %86, label %87, label %105

87:                                               ; preds = %83
  %88 = load i32, i32* %5, align 4
  %89 = sext i32 %88 to i64
  %90 = getelementptr inbounds [100 x i32], [100 x i32]* %7, i64 0, i64 %89
  %91 = load i32, i32* %90, align 4
  %92 = load i32, i32* %4, align 4
  %93 = mul nsw i32 %91, %92
  %94 = load i32, i32* %8, align 4
  %95 = sub nsw i32 %93, %94
  %96 = sitofp i32 %95 to double
  %97 = call double @llvm.fabs.f64(double %96)
  %98 = fptosi double %97 to i32
  %99 = load i32, i32* %5, align 4
  %100 = sext i32 %99 to i64
  %101 = getelementptr inbounds [100 x i32], [100 x i32]* %2, i64 0, i64 %100
  store i32 %98, i32* %101, align 4
  br label %102

102:                                              ; preds = %87
  %103 = load i32, i32* %5, align 4
  %104 = add nsw i32 %103, 1
  store i32 %104, i32* %5, align 4
  br label %83

105:                                              ; preds = %83
  %106 = getelementptr inbounds [100 x i32], [100 x i32]* %2, i64 0, i64 0
  %107 = load i32, i32* %106, align 16
  store i32 %107, i32* %3, align 4
  store i32 0, i32* %5, align 4
  br label %108

108:                                              ; preds = %125, %105
  %109 = load i32, i32* %5, align 4
  %110 = load i32, i32* %4, align 4
  %111 = icmp slt i32 %109, %110
  br i1 %111, label %112, label %128

112:                                              ; preds = %108
  %113 = load i32, i32* %5, align 4
  %114 = sext i32 %113 to i64
  %115 = getelementptr inbounds [100 x i32], [100 x i32]* %2, i64 0, i64 %114
  %116 = load i32, i32* %115, align 4
  %117 = load i32, i32* %3, align 4
  %118 = icmp sgt i32 %116, %117
  br i1 %118, label %119, label %124

119:                                              ; preds = %112
  %120 = load i32, i32* %5, align 4
  %121 = sext i32 %120 to i64
  %122 = getelementptr inbounds [100 x i32], [100 x i32]* %2, i64 0, i64 %121
  %123 = load i32, i32* %122, align 4
  store i32 %123, i32* %3, align 4
  br label %124

124:                                              ; preds = %119, %112
  br label %125

125:                                              ; preds = %124
  %126 = load i32, i32* %5, align 4
  %127 = add nsw i32 %126, 1
  store i32 %127, i32* %5, align 4
  br label %108

128:                                              ; preds = %108
  store i32 0, i32* %5, align 4
  br label %129

129:                                              ; preds = %159, %128
  %130 = load i32, i32* %5, align 4
  %131 = load i32, i32* %4, align 4
  %132 = icmp slt i32 %130, %131
  br i1 %132, label %133, label %162

133:                                              ; preds = %129
  %134 = load i32, i32* %5, align 4
  %135 = sext i32 %134 to i64
  %136 = getelementptr inbounds [100 x i32], [100 x i32]* %2, i64 0, i64 %135
  %137 = load i32, i32* %136, align 4
  %138 = load i32, i32* %3, align 4
  %139 = icmp eq i32 %137, %138
  br i1 %139, label %140, label %158

140:                                              ; preds = %133
  %141 = load i32, i32* %9, align 4
  %142 = icmp eq i32 %141, 0
  br i1 %142, label %143, label %149

143:                                              ; preds = %140
  %144 = load i32, i32* %5, align 4
  %145 = sext i32 %144 to i64
  %146 = getelementptr inbounds [100 x i32], [100 x i32]* %7, i64 0, i64 %145
  %147 = load i32, i32* %146, align 4
  %148 = call i32 (i8*, ...) @printf(i8* getelementptr inbounds ([3 x i8], [3 x i8]* @.str, i64 0, i64 0), i32 %147)
  br label %155

149:                                              ; preds = %140
  %150 = load i32, i32* %5, align 4
  %151 = sext i32 %150 to i64
  %152 = getelementptr inbounds [100 x i32], [100 x i32]* %7, i64 0, i64 %151
  %153 = load i32, i32* %152, align 4
  %154 = call i32 (i8*, ...) @printf(i8* getelementptr inbounds ([4 x i8], [4 x i8]* @.str.1, i64 0, i64 0), i32 %153)
  br label %155

155:                                              ; preds = %149, %143
  %156 = load i32, i32* %9, align 4
  %157 = add nsw i32 %156, 1
  store i32 %157, i32* %9, align 4
  br label %158

158:                                              ; preds = %155, %133
  br label %159

159:                                              ; preds = %158
  %160 = load i32, i32* %5, align 4
  %161 = add nsw i32 %160, 1
  store i32 %161, i32* %5, align 4
  br label %129

162:                                              ; preds = %129
  ret i32 0
}